; Function Attrs: nounwind uwtable
define internal i32 @ml_dsa_validate(ptr noundef %0, i32 noundef %1, i32 %2) #0 {
  %4 = tail call i32 @ossl_prov_is_running() #6
  %5 = icmp eq i32 %4, 0
  %6 = icmp eq ptr %0, null
  %or.cond.i = or i1 %6, %5
  br i1 %or.cond.i, label %ml_dsa_has.exit.thread, label %7

7:                                                ; preds = %3
  %8 = and i32 %1, 3
  %9 = icmp eq i32 %8, 0
  br i1 %9, label %ml_dsa_has.exit.thread, label %ml_dsa_has.exit

ml_dsa_has.exit:                                  ; preds = %7
  %10 = tail call i32 @ossl_ml_dsa_key_has(ptr noundef nonnull %0, i32 noundef %1) #6
  %.not = icmp eq i32 %10, 0
  br i1 %.not, label %ml_dsa_has.exit.thread, label %ml_dsa_has.exit.thread7

ml_dsa_has.exit.thread7:                          ; preds = %ml_dsa_has.exit
  %11 = icmp eq i32 %8, 3
  br i1 %11, label %12, label %ml_dsa_has.exit.thread

12:                                               ; preds = %ml_dsa_has.exit.thread7
  %13 = tail call i32 @ossl_ml_dsa_key_pairwise_check(ptr noundef nonnull %0) #6
  br label %ml_dsa_has.exit.thread

ml_dsa_has.exit.thread:                           ; preds = %7, %3, %ml_dsa_has.exit.thread7, %ml_dsa_has.exit, %12
  %.0 = phi i32 [ %13, %12 ], [ 0, %ml_dsa_has.exit ], [ 1, %ml_dsa_has.exit.thread7 ], [ 0, %3 ], [ 1, %7 ]
  ret i32 %.0
}